; Function Attrs: null_pointer_is_valid sspstrong uwtable
define internal i32 @cond_casestring(ptr noundef %0, i32 noundef %1, ptr noundef %2, ptr noundef writeonly captures(none) %3) #0 {
  %5 = getelementptr inbounds nuw i8, ptr %2, i64 40
  %6 = load i32, ptr %5, align 8
  %7 = add i32 %6, %1
  %8 = getelementptr inbounds nuw i8, ptr %0, i64 20
  %9 = load i32, ptr %8, align 4
  %10 = icmp sgt i32 %7, %9
  br i1 %10, label %31, label %11

11:                                               ; preds = %4
  %12 = getelementptr inbounds nuw i8, ptr %0, i64 8
  %13 = load ptr, ptr %12, align 8
  %14 = getelementptr inbounds nuw i8, ptr %2, i64 16
  %15 = load ptr, ptr %14, align 8
  %16 = sext i32 %6 to i64
  %17 = tail call i32 @tvb_strncaseeql(ptr noundef %13, i32 noundef %1, ptr noundef %15, i64 noundef %16)
  %18 = icmp eq i32 %17, 0
  br i1 %18, label %19, label %.sink.split

19:                                               ; preds = %11
  %20 = load i32, ptr %2, align 8
  %21 = load ptr, ptr %0, align 8
  %22 = tail call noalias dereferenceable_or_null(72) ptr @wmem_alloc(ptr noundef %21, i64 noundef 72) #11
  %23 = getelementptr inbounds nuw i8, ptr %22, i64 8
  store ptr %0, ptr %23, align 8
  %24 = load ptr, ptr %12, align 8
  %25 = getelementptr inbounds nuw i8, ptr %22, i64 16
  store ptr %24, ptr %25, align 8
  store i32 %20, ptr %22, align 8
  %26 = getelementptr inbounds nuw i8, ptr %22, i64 24
  store i32 %1, ptr %26, align 8
  %27 = getelementptr inbounds nuw i8, ptr %22, i64 28
  store i32 %6, ptr %27, align 4
  %28 = getelementptr inbounds nuw i8, ptr %22, i64 32
  %29 = getelementptr inbounds nuw i8, ptr %22, i64 64
  tail call void @llvm.memset.p0.i64(ptr noundef nonnull align 8 dereferenceable(24) %28, i8 0, i64 24, i1 false)
  store ptr %2, ptr %29, align 8
  %30 = getelementptr inbounds nuw i8, ptr %22, i64 56
  store ptr %22, ptr %30, align 8
  br label %.sink.split

.sink.split:                                      ; preds = %11, %19
  %.sink = phi ptr [ %22, %19 ], [ null, %11 ]
  %.0.ph = phi i32 [ %6, %19 ], [ -1, %11 ]
  store ptr %.sink, ptr %3, align 8
  br label %31

31:                                               ; preds = %.sink.split, %4
  %.0 = phi i32 [ -1, %4 ], [ %.0.ph, %.sink.split ]
  ret i32 %.0
}